; ModuleID = 'bench/draco/original/quantization_utils.ll'
source_filename = "bench/draco/original/quantization_utils.ll"
target datalayout = "e-m:e-p270:32:32-p271:32:32-p272:64:64-i64:64-i128:128-f80:128-n8:16:32:64-S128"
target triple = "x86_64-pc-linux-gnu"

%"class.std::ios_base::Init" = type { i8 }

@_ZStL8__ioinit = internal global %"class.std::ios_base::Init" zeroinitializer, align 1
@__dso_handle = external hidden global i8
@llvm.global_ctors = appending global [1 x { i32, ptr, ptr }] [{ i32, ptr, ptr } { i32 65535, ptr @_GLOBAL__sub_I_quantization_utils.cc, ptr null }]

@_ZN5draco9QuantizerC1Ev = unnamed_addr alias void (ptr), ptr @_ZN5draco9QuantizerC2Ev
@_ZN5draco11DequantizerC1Ev = unnamed_addr alias void (ptr), ptr @_ZN5draco11DequantizerC2Ev

declare void @_ZNSt8ios_base4InitC1Ev(ptr noundef nonnull align 1 dereferenceable(1)) unnamed_addr #0

; Function Attrs: nounwind
declare void @_ZNSt8ios_base4InitD1Ev(ptr noundef nonnull align 1 dereferenceable(1)) unnamed_addr #1

; Function Attrs: nofree nounwind
declare i32 @__cxa_atexit(ptr, ptr, ptr) local_unnamed_addr #2

; Function Attrs: mustprogress nofree norecurse nosync nounwind willreturn memory(argmem: write) uwtable
define void @_ZN5draco9QuantizerC2Ev(ptr noundef nonnull writeonly align 4 captures(none) dereferenceable(4) initializes((0, 4)) %0) unnamed_addr #3 align 2 {
  store float 1.000000e+00, ptr %0, align 4, !tbaa !3
  ret void
}

; Function Attrs: mustprogress nofree norecurse nosync nounwind willreturn memory(argmem: write) uwtable
define void @_ZN5draco9Quantizer4InitEfi(ptr noundef nonnull writeonly align 4 captures(none) dereferenceable(4) initializes((0, 4)) %0, float noundef %1, i32 noundef %2) local_unnamed_addr #3 align 2 {
  %4 = sitofp i32 %2 to float
  %5 = fdiv float %4, %1
  store float %5, ptr %0, align 4, !tbaa !3
  ret void
}

; Function Attrs: mustprogress nofree norecurse nosync nounwind willreturn memory(argmem: write) uwtable
define void @_ZN5draco9Quantizer4InitEf(ptr noundef nonnull writeonly align 4 captures(none) dereferenceable(4) initializes((0, 4)) %0, float noundef %1) local_unnamed_addr #3 align 2 {
  %3 = fdiv float 1.000000e+00, %1
  store float %3, ptr %0, align 4, !tbaa !3
  ret void
}

; Function Attrs: mustprogress nofree norecurse nosync nounwind willreturn memory(argmem: write) uwtable
define void @_ZN5draco11DequantizerC2Ev(ptr noundef nonnull writeonly align 4 captures(none) dereferenceable(4) initializes((0, 4)) %0) unnamed_addr #3 align 2 {
  store float 1.000000e+00, ptr %0, align 4, !tbaa !8
  ret void
}

; Function Attrs: mustprogress nofree norecurse nosync nounwind willreturn memory(argmem: write) uwtable
define noundef zeroext i1 @_ZN5draco11Dequantizer4InitEfi(ptr noundef nonnull writeonly align 4 captures(none) dereferenceable(4) %0, float noundef %1, i32 noundef %2) local_unnamed_addr #3 align 2 {
  %4 = icmp sgt i32 %2, 0
  br i1 %4, label %5, label %8

5:                                                ; preds = %3
  %6 = uitofp nneg i32 %2 to float
  %7 = fdiv float %1, %6
  store float %7, ptr %0, align 4, !tbaa !8
  br label %8

8:                                                ; preds = %3, %5
  ret i1 %4
}

; Function Attrs: mustprogress nofree norecurse nosync nounwind willreturn memory(argmem: write) uwtable
define noundef zeroext i1 @_ZN5draco11Dequantizer4InitEf(ptr noundef nonnull writeonly align 4 captures(none) dereferenceable(4) initializes((0, 4)) %0, float noundef %1) local_unnamed_addr #3 align 2 {
  store float %1, ptr %0, align 4, !tbaa !8
  ret i1 true
}

; Function Attrs: uwtable
define internal void @_GLOBAL__sub_I_quantization_utils.cc() #4 section ".text.startup" {
  tail call void @_ZNSt8ios_base4InitC1Ev(ptr noundef nonnull align 1 dereferenceable(1) @_ZStL8__ioinit)
  %1 = tail call i32 @__cxa_atexit(ptr nonnull @_ZNSt8ios_base4InitD1Ev, ptr nonnull @_ZStL8__ioinit, ptr nonnull @__dso_handle) #5
  ret void
}


!llvm.module.flags = !{!0, !1, !2}

!0 = !{i32 1, !"wchar_size", i32 4}
!1 = !{i32 8, !"PIC Level", i32 2}
!2 = !{i32 7, !"uwtable", i32 2}
!3 = !{!4, !5, i64 0}
!4 = !{!"_ZTSN5draco9QuantizerE", !5, i64 0}
!5 = !{!"float", !6, i64 0}
!6 = !{!"omnipotent char", !7, i64 0}
!7 = !{!"Simple C++ TBAA"}
!8 = !{!9, !5, i64 0}
!9 = !{!"_ZTSN5draco11DequantizerE", !5, i64 0}
